target datalayout = "e-m:e-p270:32:32-p271:32:32-p272:64:64-i64:64-i128:128-f80:128-n8:16:32:64-S128"
target triple = "x86_64-pc-linux-gnu"

%struct.jpeg_decompress_struct = type { ptr, ptr, ptr, ptr, i32, i32, ptr, i32, i32, i32, i32, i32, i32, i32, double, i32, i32, i32, i32, i32, i32, i32, i32, i32, i32, i32, i32, i32, i32, i32, i32, i32, i32, ptr, i32, i32, i32, i32, i32, ptr, [4 x ptr], [4 x ptr], [4 x ptr], i32, ptr, i32, i32, [16 x i8], [16 x i8], [16 x i8], i32, i32, i8, i8, i8, i16, i16, i32, i8, i32, ptr, i32, i32, i32, i32, ptr, i32, [4 x ptr], i32, i32, i32, [10 x i32], i32, i32, i32, i32, i32, ptr, ptr, ptr, ptr, ptr, ptr, ptr, ptr, ptr, ptr, ptr }

@simd_support = internal thread_local global i32 -1, align 4

; Function Attrs: nounwind uwtable
define void @jsimd_h2v1_upsample(ptr noundef %0, ptr noundef %1, ptr noundef %2, ptr noundef %3) #0 {
  %5 = alloca ptr, align 8
  %6 = alloca ptr, align 8
  %7 = alloca ptr, align 8
  %8 = alloca ptr, align 8
  store ptr %0, ptr %5, align 8, !tbaa !33
  store ptr %1, ptr %6, align 8, !tbaa !31
  store ptr %2, ptr %7, align 8, !tbaa !10
  store ptr %3, ptr %8, align 8, !tbaa !12
  %9 = call align 4 ptr @llvm.threadlocal.address.p0(ptr align 4 @simd_support)
  %10 = load i32, ptr %9, align 4, !tbaa !3
  %11 = icmp eq i32 %10, -1
  br i1 %11, label %12, label %13

12:                                               ; preds = %4
  call void @init_simd()
  br label %13

13:                                               ; preds = %12, %4
  %14 = call align 4 ptr @llvm.threadlocal.address.p0(ptr align 4 @simd_support)
  %15 = load i32, ptr %14, align 4, !tbaa !3
  %16 = and i32 %15, 128
  %17 = icmp ne i32 %16, 0
  br i1 %17, label %18, label %27

18:                                               ; preds = %13
  %19 = load ptr, ptr %5, align 8, !tbaa !33
  %20 = getelementptr inbounds nuw %struct.jpeg_decompress_struct, ptr %19, i32 0, i32 62
  %21 = load i32, ptr %20, align 4, !tbaa !57
  %22 = load ptr, ptr %5, align 8, !tbaa !33
  %23 = getelementptr inbounds nuw %struct.jpeg_decompress_struct, ptr %22, i32 0, i32 27
  %24 = load i32, ptr %23, align 8, !tbaa !52
  %25 = load ptr, ptr %7, align 8, !tbaa !10
  %26 = load ptr, ptr %8, align 8, !tbaa !12
  call void @jsimd_h2v1_upsample_avx2(i32 noundef %21, i32 noundef %24, ptr noundef %25, ptr noundef %26)
  br label %36

27:                                               ; preds = %13
  %28 = load ptr, ptr %5, align 8, !tbaa !33
  %29 = getelementptr inbounds nuw %struct.jpeg_decompress_struct, ptr %28, i32 0, i32 62
  %30 = load i32, ptr %29, align 4, !tbaa !57
  %31 = load ptr, ptr %5, align 8, !tbaa !33
  %32 = getelementptr inbounds nuw %struct.jpeg_decompress_struct, ptr %31, i32 0, i32 27
  %33 = load i32, ptr %32, align 8, !tbaa !52
  %34 = load ptr, ptr %7, align 8, !tbaa !10
  %35 = load ptr, ptr %8, align 8, !tbaa !12
  call void @jsimd_h2v1_upsample_sse2(i32 noundef %30, i32 noundef %33, ptr noundef %34, ptr noundef %35)
  br label %36

36:                                               ; preds = %27, %18
  ret void
}