; Function Attrs: nounwind uwtable
define void @jsimd_h2v1_upsample(ptr noundef readonly captures(none) %0, ptr noundef readnone captures(none) %1, ptr noundef %2, ptr noundef %3) local_unnamed_addr #0 {
  %5 = tail call align 4 ptr @llvm.threadlocal.address.p0(ptr align 4 @simd_support)
  %6 = load i32, ptr %5, align 4, !tbaa !3
  %7 = icmp eq i32 %6, -1
  br i1 %7, label %8, label %9

8:                                                ; preds = %4
  tail call fastcc void @init_simd()
  %.pre = load i32, ptr %5, align 4, !tbaa !3
  br label %9

9:                                                ; preds = %8, %4
  %10 = phi i32 [ %.pre, %8 ], [ %6, %4 ]
  %11 = and i32 %10, 128
  %.not = icmp eq i32 %11, 0
  %12 = getelementptr inbounds nuw i8, ptr %0, i64 412
  %13 = load i32, ptr %12, align 4, !tbaa !50
  %14 = getelementptr inbounds nuw i8, ptr %0, i64 136
  %15 = load i32, ptr %14, align 8, !tbaa !45
  br i1 %.not, label %17, label %16

16:                                               ; preds = %9
  tail call void @jsimd_h2v1_upsample_avx2(i32 noundef %13, i32 noundef %15, ptr noundef %2, ptr noundef %3) #8
  br label %18

17:                                               ; preds = %9
  tail call void @jsimd_h2v1_upsample_sse2(i32 noundef %13, i32 noundef %15, ptr noundef %2, ptr noundef %3) #8
  br label %18

18:                                               ; preds = %17, %16
  ret void
}